; Function Attrs: nounwind sspstrong uwtable
define dso_local zeroext i1 @visit_type_XDbgBlockGraphNode_members(ptr noundef %v, ptr noundef %obj, ptr noundef %errp) local_unnamed_addr #0 {
entry:
  %value.i = alloca i32, align 4
  %call = tail call zeroext i1 @visit_type_uint64(ptr noundef %v, ptr noundef nonnull @.str, ptr noundef %obj, ptr noundef %errp) #5
  br i1 %call, label %if.end, label %return

if.end:                                           ; preds = %entry
  %type = getelementptr inbounds nuw i8, ptr %obj, i64 8
  call void @llvm.lifetime.start.p0(i64 4, ptr nonnull %value.i)
  %0 = load i32, ptr %type, align 4
  store i32 %0, ptr %value.i, align 4
  %call.i = call zeroext i1 @visit_type_enum(ptr noundef %v, ptr noundef nonnull @.str.32, ptr noundef nonnull %value.i, ptr noundef nonnull @XDbgBlockGraphNodeType_lookup, ptr noundef %errp) #5
  %1 = load i32, ptr %value.i, align 4
  store i32 %1, ptr %type, align 4
  call void @llvm.lifetime.end.p0(i64 4, ptr nonnull %value.i)
  br i1 %call.i, label %if.end3, label %return

if.end3:                                          ; preds = %if.end
  %name = getelementptr inbounds nuw i8, ptr %obj, i64 16
  %call4 = call zeroext i1 @visit_type_str(ptr noundef %v, ptr noundef nonnull @.str.1, ptr noundef nonnull %name, ptr noundef %errp) #5
  br label %return

return:                                           ; preds = %if.end3, %if.end, %entry
  %retval.0 = phi i1 [ false, %entry ], [ false, %if.end ], [ %call4, %if.end3 ]
  ret i1 %retval.0
}